target datalayout = "e-m:e-p270:32:32-p271:32:32-p272:64:64-i64:64-i128:128-f80:128-n8:16:32:64-S128"
target triple = "x86_64-unknown-linux-gnu"

%"class.Imath_3_2::Vec2" = type { i32, i32 }
%"class.Imf_3_2::Image" = type { ptr, %"class.Imath_3_2::Box", i32, i32, %"class.std::map", %"class.Imf_3_2::Array2D" }
%"class.Imath_3_2::Box" = type { %"class.Imath_3_2::Vec2", %"class.Imath_3_2::Vec2" }
%"class.std::map" = type { %"class.std::_Rb_tree" }
%"class.std::_Rb_tree" = type { %"struct.std::_Rb_tree<std::__cxx11::basic_string<char>, std::pair<const std::__cxx11::basic_string<char>, Imf_3_2::Image::ChannelInfo>, std::_Select1st<std::pair<const std::__cxx11::basic_string<char>, Imf_3_2::Image::ChannelInfo>>, std::less<std::__cxx11::basic_string<char>>>::_Rb_tree_impl" }
%"struct.std::_Rb_tree<std::__cxx11::basic_string<char>, std::pair<const std::__cxx11::basic_string<char>, Imf_3_2::Image::ChannelInfo>, std::_Select1st<std::pair<const std::__cxx11::basic_string<char>, Imf_3_2::Image::ChannelInfo>>, std::less<std::__cxx11::basic_string<char>>>::_Rb_tree_impl" = type { %"struct.std::_Rb_tree_key_compare", %"struct.std::_Rb_tree_header" }
%"struct.std::_Rb_tree_key_compare" = type { %"struct.std::less" }
%"struct.std::less" = type { i8 }
%"struct.std::_Rb_tree_header" = type { %"struct.std::_Rb_tree_node_base", i64 }
%"struct.std::_Rb_tree_node_base" = type { i32, ptr, ptr, ptr }
%"class.Imf_3_2::Array2D" = type { i64, i64, ptr }

@.str = private unnamed_addr constant [64 x i8] c"Number of levels query for image must specify x or y direction.\00", align 1
@_ZTIN7Iex_3_28LogicExcE = external constant ptr

; Function Attrs: mustprogress nounwind uwtable
define linkonce_odr hidden noundef i64 @_ZNK7Imf_3_27Array2DIPNS_10ImageLevelEE5widthEv(ptr noundef nonnull align 8 dereferenceable(24) %this) #5 comdat align 2 {
entry:
  %this.addr = alloca ptr, align 8
  store ptr %this, ptr %this.addr, align 8
  %this1 = load ptr, ptr %this.addr, align 8
  %_sizeY = getelementptr inbounds %"class.Imf_3_2::Array2D", ptr %this1, i32 0, i32 1
  %0 = load i64, ptr %_sizeY, align 8
  ret i64 %0
}

; Function Attrs: mustprogress uwtable
define noundef i32 @_ZNK7Imf_3_25Image10numXLevelsEv(ptr noundef nonnull align 8 dereferenceable(104) %this) #4 align 2 {
entry:
  %this.addr = alloca ptr, align 8
  store ptr %this, ptr %this.addr, align 8
  %this1 = load ptr, ptr %this.addr, align 8
  %_levels = getelementptr inbounds %"class.Imf_3_2::Image", ptr %this1, i32 0, i32 5
  %call = call noundef i64 @_ZNK7Imf_3_27Array2DIPNS_10ImageLevelEE5widthEv(ptr noundef nonnull align 8 dereferenceable(24) %_levels)
  %conv = trunc i64 %call to i32
  ret i32 %conv
}

; Function Attrs: mustprogress uwtable
define noundef i32 @_ZNK7Imf_3_25Image9numLevelsEv(ptr noundef nonnull align 8 dereferenceable(104) %this) #4 align 2 personality ptr @__gxx_personality_v0 {
entry:
  %this.addr = alloca ptr, align 8
  %exn.slot = alloca ptr, align 8
  %ehselector.slot = alloca i32, align 4
  store ptr %this, ptr %this.addr, align 8
  %this1 = load ptr, ptr %this.addr, align 8
  %_levelMode = getelementptr inbounds %"class.Imf_3_2::Image", ptr %this1, i32 0, i32 2
  %0 = load i32, ptr %_levelMode, align 8
  %cmp = icmp eq i32 %0, 0
  br i1 %cmp, label %if.then, label %lor.lhs.false

lor.lhs.false:                                    ; preds = %entry
  %_levelMode2 = getelementptr inbounds %"class.Imf_3_2::Image", ptr %this1, i32 0, i32 2
  %1 = load i32, ptr %_levelMode2, align 8
  %cmp3 = icmp eq i32 %1, 1
  br i1 %cmp3, label %if.then, label %if.else

if.then:                                          ; preds = %lor.lhs.false, %entry
  %call = call noundef i32 @_ZNK7Imf_3_25Image10numXLevelsEv(ptr noundef nonnull align 8 dereferenceable(104) %this1)
  ret i32 %call

if.else:                                          ; preds = %lor.lhs.false
  %exception = call ptr @__cxa_allocate_exception(i64 72) #3
  invoke void @_ZN7Iex_3_28LogicExcC1EPKc(ptr noundef nonnull align 8 dereferenceable(72) %exception, ptr noundef @.str)
          to label %invoke.cont unwind label %lpad

invoke.cont:                                      ; preds = %if.else
  call void @__cxa_throw(ptr %exception, ptr @_ZTIN7Iex_3_28LogicExcE, ptr @_ZN7Iex_3_28LogicExcD1Ev) #17
  unreachable

lpad:                                             ; preds = %if.else
  %2 = landingpad { ptr, i32 }
          cleanup
  %3 = extractvalue { ptr, i32 } %2, 0
  store ptr %3, ptr %exn.slot, align 8
  %4 = extractvalue { ptr, i32 } %2, 1
  store i32 %4, ptr %ehselector.slot, align 4
  call void @__cxa_free_exception(ptr %exception) #3
  br label %eh.resume

eh.resume:                                        ; preds = %lpad
  %exn = load ptr, ptr %exn.slot, align 8
  %sel = load i32, ptr %ehselector.slot, align 4
  %lpad.val = insertvalue { ptr, i32 } poison, ptr %exn, 0
  %lpad.val4 = insertvalue { ptr, i32 } %lpad.val, i32 %sel, 1
  resume { ptr, i32 } %lpad.val4
}