; Function Attrs: mustprogress uwtable
define noundef i32 @_ZNK7Imf_3_25Image9numLevelsEv(ptr nocapture noundef nonnull readonly align 8 dereferenceable(104) %this) local_unnamed_addr #6 align 2 personality ptr @__gxx_personality_v0 {
entry:
  %_levelMode = getelementptr inbounds i8, ptr %this, i64 24
  %0 = load i32, ptr %_levelMode, align 8
  %switch = icmp ult i32 %0, 2
  br i1 %switch, label %if.then, label %if.else

if.then:                                          ; preds = %entry
  %_sizeY.i.i = getelementptr inbounds i8, ptr %this, i64 88
  %1 = load i64, ptr %_sizeY.i.i, align 8
  %conv.i = trunc i64 %1 to i32
  ret i32 %conv.i

if.else:                                          ; preds = %entry
  %exception = tail call ptr @__cxa_allocate_exception(i64 72) #22
  invoke void @_ZN7Iex_3_28LogicExcC1EPKc(ptr noundef nonnull align 8 dereferenceable(72) %exception, ptr noundef nonnull @.str)
          to label %invoke.cont unwind label %lpad

invoke.cont:                                      ; preds = %if.else
  tail call void @__cxa_throw(ptr nonnull %exception, ptr nonnull @_ZTIN7Iex_3_28LogicExcE, ptr nonnull @_ZN7Iex_3_28LogicExcD1Ev) #25
  unreachable

lpad:                                             ; preds = %if.else
  %2 = landingpad { ptr, i32 }
          cleanup
  tail call void @__cxa_free_exception(ptr %exception) #22
  resume { ptr, i32 } %2
}